(lp1
I9
acsip
_unpickle_type
p2
(S'PyQt4.QtCore'
p3
S'QString'
(V/dados/PhD/Codes/QCA/data/International-Studies-Review-Replication-Data.csv
p4
ttRp5
accopy_reg
_reconstructor
p6
(ckirqlib
HistoryItem
p7
c__builtin__
object
p8
NtRp9
(dp10
S'widgetStackIndex'
p11
NsS'_allSignatures'
p12
(lp13
NasS'nameString'
p14
S'root'
p15
sS'_signature'
p16
NsS'_parent'
p17
NsS'_annotation'
p18
S''
sS'children'
p19
(lp20
g6
(g7
g8
NtRp21
(dp22
g11
I1
sg12
(lp23
g6
(ckirqlib
Signature
p24
g8
NtRp25
(dp26
S'_signatureData'
p27
(dp28
S'Outcome'
p29
g2
(g3
S'QString'
(Vsuccess
p30
ttRp31
sS'Causal Conditions'
p32
(lp33
S'gdppc'
p34
aS'gini'
p35
aS'unemp'
p36
aS'urban'
p37
aS'mobile'
p38
asS'Data Set Filename'
p39
g2
(g3
S'QString'
(VInternational-Studies-Review-Replication-Data/success
p40
ttRp41
sS'Dataset'
p42
g6
(cdataset
Dataset
p43
c__builtin__
list
p44
(lp45
(lp46
S'Country'
p47
aS'gdppc'
p48
aS'gini'
p49
aS'unemp'
p50
aS'urban'
p51
aS'youth'
p52
aS'mobile'
p53
aS'internet'
p54
aS'fuel'
p55
aS'pol'
p56
aS'success'
p57
aa(lp58
S'Bahrain'
p59
aS'0.84'
p60
aS'0.42'
p61
aS'0.58'
p62
aS'0.89'
p63
aS'0.26'
p64
aS'0.68'
p65
aS'0.89'
p66
aS'0.58'
p67
aS'0.11'
p68
aS'0'
aa(lp69
S'Djibouti'
p70
aS'0.16'
p71
aS'0.74'
p72
aS'1'
aS'0.63'
p73
aS'0.74'
p74
aS'0.05'
p75
aS'0.16'
p76
aS'0.01'
p77
aS'0.83'
p78
aS'0.2'
p79
aa(lp80
S'Iraq'
p81
aS'0.05'
p82
aS'0.11'
p83
aS'0.74'
p84
aS'0.42'
p85
aS'0.89'
p86
aS'0.42'
p87
aS'0.79'
p88
aS'0.37'
p89
aS'0.94'
p90
aS'0.3'
p91
aa(lp92
S'Mauritania'
p93
aS'0.11'
p94
aS'0.68'
p95
aS'0.84'
p96
aS'0.21'
p97
aS'0.84'
p98
aS'0.32'
p99
aS'0.05'
p100
aS'0.26'
p101
aS'0.67'
p102
aS'0.4'
p103
aa(lp104
S'UAE'
p105
aS'0.95'
p106
aS'0.11'
p107
aS'0.11'
p108
aS'0.79'
p109
aS'0.05'
p110
aS'0.79'
p111
aS'1'
aS'0.53'
p112
aS'0.11'
p113
aS'0.4'
p114
aa(lp115
S'Qatar'
p116
aS'1'
aS'0.79'
p117
aS'0.01'
p118
aS'0.95'
p119
aS'0.01'
p120
aS'0.74'
p121
aS'0.95'
p122
aS'0.63'
p123
aS'0.01'
p124
aS'0.5'
p125
aa(lp126
S'Somalia'
p127
aS'0.01'
p128
aS'0.01'
p129
aS'0.95'
p130
aS'0.11'
p131
aS'1'
aS'0.01'
p132
aS'0.01'
p133
aS'0.16'
p134
aS'0.5'
p135
aS'0.5'
p136
aa(lp137
S'Algeria'
p138
aS'0.58'
p139
aS'0.37'
p140
aS'0.42'
p141
aS'0.47'
p142
aS'0.32'
p143
aS'0.47'
p144
aS'0.32'
p145
aS'1'
aS'0.83'
p146
aS'0.55'
p147
aa(lp148
S'Sudan'
p149
aS'0.26'
p150
aS'1'
aS'0.79'
p151
aS'0.16'
p152
aS'0.79'
p153
aS'0.11'
p154
aS'0.21'
p155
aS'0.74'
p156
aS'0.67'
p157
aS'0.55'
p158
aa(lp159
S'Jordan'
p160
aS'0.53'
p161
aS'0.58'
p162
aS'0.47'
p163
aS'0.01'
p164
aS'0.63'
p165
aS'0.63'
p166
aS'0.47'
p167
aS'0.05'
p168
aS'0.56'
p169
aS'0.7'
p170
aa(lp171
S'Kuwait'
p172
aS'0.89'
p173
aS'0.01'
p174
aS'0.05'
p175
aS'1'
aS'0.16'
p176
aS'0.84'
p177
aS'0.74'
p178
aS'0.89'
p179
aS'0.28'
p180
aS'0.6'
p181
aa(lp182
S'Lebanon'
p183
aS'0.63'
p184
aS'0.95'
p185
aS'0.32'
p186
aS'0.84'
p187
aS'0.21'
p188
aS'0.26'
p189
aS'0.58'
p190
aS'0.11'
p191
aS'1'
aS'0.6'
p192
aa(lp193
S'Morocco'
p194
aS'0.42'
p195
aS'0.79'
p196
aS'0.37'
p197
aS'0.37'
p198
aS'0.37'
p199
aS'0.53'
p200
aS'0.68'
p201
aS'0.21'
p202
aS'0.44'
p203
aS'0.7'
p204
aa(lp205
S'Oman'
p206
aS'0.79'
p207
aS'0.21'
p208
aS'0.58'
p209
aS'0.58'
p210
aS'0.47'
p211
aS'0.89'
p212
aS'0.84'
p213
aS'0.68'
p214
aS'0.11'
p215
aS'0.6'
p216
aa(lp217
S'Saudi'
p218
aS'0.74'
p219
aS'0.21'
p220
aS'0.16'
p221
aS'0.74'
p222
aS'0.53'
p223
aS'1'
aS'0.47'
p224
aS'0.79'
p225
aS'0.01'
p226
aS'0.6'
p227
aa(lp228
S'Syria'
p229
aS'0.37'
p230
aS'0.42'
p231
aS'0.21'
p232
aS'0.32'
p233
aS'0.68'
p234
aS'0.21'
p235
aS'0.42'
p236
aS'0.47'
p237
aS'0.28'
p238
aS'0.55'
p239
aa(lp240
S'Libya'
p241
aS'0.68'
p242
aS'0.42'
p243
aS'0.84'
p244
aS'0.68'
p245
aS'0.42'
p246
aS'0.95'
p247
aS'0.11'
p248
aS'0.95'
p249
aS'0.28'
p250
aS'0.8'
p251
aa(lp252
S'Egypt'
p253
aS'0.32'
p254
aS'0.21'
p255
aS'0.26'
p256
aS'0.26'
p257
aS'0.58'
p258
aS'0.37'
p259
aS'0.37'
p260
aS'0.42'
p261
aS'0.56'
p262
aS'1'
aa(lp263
S'Tunisia'
p264
aS'0.47'
p265
aS'0.79'
p266
aS'0.53'
p267
aS'0.53'
p268
aS'0.11'
p269
aS'0.58'
p270
aS'0.63'
p271
aS'0.32'
p272
aS'0.5'
p273
aS'1'
aa(lp274
S'Yemen'
p275
aS'0.21'
p276
aS'0.58'
p277
aS'0.58'
p278
aS'0.05'
p279
aS'0.95'
p280
aS'0.16'
p281
aS'0.26'
p282
aS'0.84'
p283
aS'0.67'
p284
aS'1'
aatRp285
ssS'_timestamp'
p286
S'seg, 06 abr 2020 14:10:24 +0000'
p287
sS'signaturehash'
p288
I156482019
sbasg14
g41
sg16
g25
sg17
g9
sg18
S''
sg19
(lp289
g6
(g7
g8
NtRp290
(dp291
g11
I2
sg12
(lp292
g6
(g24
g8
NtRp293
(dp294
g27
(dp295
S'Consistency Threshold'
p296
F0.90000000000000002
sS'Frequency Threshold'
p297
F1
sg42
(lp298
g46
ag58
ag69
ag80
ag92
ag104
ag115
ag126
ag137
ag148
ag159
ag171
ag182
ag193
ag205
ag217
ag228
ag240
ag252
ag263
ag274
asS'Consistency Proportion'
p299
F1
sg32
(lp300
S'gdppc'
p301
aS'gini'
p302
aS'unemp'
p303
aS'urban'
p304
aS'mobile'
p305
asg29
g2
(g3
S'QString'
(Vsuccess
p306
ttRp307
ssg286
S'seg, 06 abr 2020 14:10:24 +0000'
p308
sg288
I-471778114
sbasg14
S'gtt_suf_1'
p309
sg16
g293
sg17
g21
sg18
S''
sg19
(lp310
sbag6
(g7
g8
NtRp311
(dp312
g11
I3
sg12
(lp313
g6
(g24
g8
NtRp314
(dp315
g27
(dp316
g296
F0.80000000000000004
sS'Coverage Threshold'
p317
F0.5
sS'Concov Type'
p318
S'nec'
p319
sg42
g298
sg32
(lp320
S'gdppc'
p321
aS'gini'
p322
aS'unemp'
p323
aS'urban'
p324
aS'mobile'
p325
asg29
g2
(g3
S'QString'
(Vsuccess
p326
ttRp327
ssg286
S'seg, 06 abr 2020 14:16:38 +0000'
p328
sg288
I1562913830
sbasg14
S'concov_nec_2'
p329
sg16
g314
sg17
g21
sg18
S''
sg19
(lp330
sbag6
(g7
g8
NtRp331
(dp332
g11
I4
sg12
(lp333
g6
(g24
g8
NtRp334
(dp335
g27
(dp336
g296
F0.80000000000000004
sg297
F1
sg42
g298
sg299
F1
sg32
(lp337
S'gdppc'
p338
aS'gini'
p339
aS'unemp'
p340
aS'urban'
p341
aS'mobile'
p342
asg29
g2
(g3
S'QString'
(Vsuccess
p343
ttRp344
ssg286
S'seg, 06 abr 2020 14:17:06 +0000'
p345
sg288
I-995183639
sbag6
(g24
g8
NtRp346
(dp347
g27
(dp348
g296
F0.80000000000000004
sg297
F1
sg42
g298
sg299
F1
sg32
(lp349
S'gdppc'
p350
aS'gini'
p351
aS'unemp'
p352
aS'urban'
p353
aS'mobile'
p354
asg29
g2
(g3
S'QString'
(Vsuccess
p355
ttRp356
ssg286
S'seg, 06 abr 2020 14:17:20 +0000'
p357
sg288
I-995183639
sbag6
(g24
g8
NtRp358
(dp359
g27
(dp360
g296
F0.80000000000000004
sg297
F1
sg42
g298
sg299
F1
sg32
(lp361
S'gdppc'
p362
aS'gini'
p363
aS'unemp'
p364
aS'urban'
p365
aS'mobile'
p366
asg29
g2
(g3
S'QString'
(Vsuccess
p367
ttRp368
ssg286
S'seg, 06 abr 2020 14:17:44 +0000'
p369
sg288
I-995183639
sbasg14
S'gtt_suf_3'
p370
sg16
g334
sg17
g21
sg18
S''
sg19
(lp371
sbasbag6
(g7
g8
NtRp372
(dp373
g11
I5
sg12
(lp374
g6
(g24
g8
NtRp375
(dp376
g27
(dp377
g29
g2
(g3
S'QString'
(Vsuccess
p378
ttRp379
sg32
(lp380
S'gdppc'
p381
aS'gini'
p382
aS'unemp'
p383
aS'urban'
p384
aS'youth'
p385
aS'mobile'
p386
aS'internet'
p387
aS'fuel'
p388
aS'pol'
p389
aS'success'
p390
asg39
g2
(g3
S'QString'
(VInternational-Studies-Review-Replication-Data/success
p391
ttRp392
sg42
g298
ssg286
S'seg, 06 abr 2020 14:19:42 +0000'
p393
sg288
I156482019
sbasg14
g392
sg16
g375
sg17
g9
sg18
S''
sg19
(lp394
sbag6
(g7
g8
NtRp395
(dp396
g11
I6
sg12
(lp397
g6
(g24
g8
NtRp398
(dp399
g27
(dp400
g29
g2
(g3
S'QString'
(Vsuccess
p401
ttRp402
sg32
(lp403
S'gdppc'
p404
aS'gini'
p405
aS'unemp'
p406
aS'urban'
p407
aS'youth'
p408
aS'mobile'
p409
aS'internet'
p410
aS'fuel'
p411
aS'pol'
p412
asg39
g2
(g3
S'QString'
(VInternational-Studies-Review-Replication-Data/success
p413
ttRp414
sg42
(lp415
g46
ag58
ag69
ag80
ag92
ag104
ag115
ag126
ag137
ag148
ag159
ag171
ag182
ag193
ag205
ag217
ag228
ag240
ag252
ag263
ag274
assg286
S'seg, 06 abr 2020 14:19:49 +0000'
p416
sg288
I156482019
sbasg14
g414
sg16
g398
sg17
g9
sg18
S''
sg19
(lp417
g6
(g7
g8
NtRp418
(dp419
g11
I7
sg12
(lp420
g6
(g24
g8
NtRp421
(dp422
g27
(dp423
g296
F0.80000000000000004
sg297
F1
sg42
(lp424
g46
ag58
ag69
ag80
ag92
ag104
ag115
ag126
ag137
ag148
ag159
ag171
ag182
ag193
ag205
ag217
ag228
ag240
ag252
ag263
ag274
asg299
F1
sg32
(lp425
S'gdppc'
p426
aS'gini'
p427
aS'unemp'
p428
aS'urban'
p429
aS'youth'
p430
aS'mobile'
p431
aS'internet'
p432
aS'fuel'
p433
aS'pol'
p434
asg29
g2
(g3
S'QString'
(Vsuccess
p435
ttRp436
ssg286
S'seg, 06 abr 2020 14:19:49 +0000'
p437
sg288
I1890336816
sbasg14
S'gtt_suf_1'
p438
sg16
g421
sg17
g395
sg18
S''
sg19
(lp439
sbasbasbag298
a(lp440
(S'DataSetWidget'
p441
g285
g5
(lp442
S'gdppc'
p443
aS'gini'
p444
aS'unemp'
p445
aS'urban'
p446
aS'youth'
p447
aS'mobile'
p448
aS'internet'
p449
aS'fuel'
p450
aS'pol'
p451
atp452
a(g441
g298
g5
(lp453
S'gdppc'
p454
aS'gini'
p455
aS'unemp'
p456
aS'urban'
p457
aS'youth'
p458
aS'mobile'
p459
aS'internet'
p460
aS'fuel'
p461
aS'pol'
p462
atp463
a(S'Gtt'
p464
(lp465
S'gdppc  gini  unemp  urban  mobile  N  Consist  Outcome  ObsConsist  ObsInconsist'
p466
aS'True  True  True  True  True  0  n/a  Rem  -  -'
p467
aS'True  True  True  True  False  0  n/a  Rem  -  -'
p468
aS'True  True  True  False  True  0  n/a  Rem  -  -'
p469
aS'True  True  True  False  False  0  n/a  Rem  -  -'
p470
aS'True  True  False  True  True  1  0.84  False  -  Qatar'
p471
aS'True  True  False  True  False  1  0.90  True  Lebanon  -'
p472
aS'True  True  False  False  True  1  0.97  True  Jordan  -'
p473
aS'True  True  False  False  False  0  n/a  Rem  -  -'
p474
aS'True  False  True  True  True  3  0.84  Con  Oman;Libya  Bahrain'
p475
aS'True  False  True  True  False  0  n/a  Rem  -  -'
p476
aS'True  False  True  False  True  0  n/a  Rem  -  -'
p477
aS'True  False  True  False  False  0  n/a  Rem  -  -'
p478
aS'True  False  False  True  True  3  0.77  False  -  UAE;Kuwait;Saudi'
p479
aS'True  False  False  True  False  0  n/a  Rem  -  -'
p480
aS'True  False  False  False  True  0  n/a  Rem  -  -'
p481
aS'True  False  False  False  False  1  0.96  True  Algeria  -'
p482
aS'False  True  True  True  True  1  0.95  True  Tunisia  -'
p483
aS'False  True  True  True  False  1  0.83  False  -  Djibouti'
p484
aS'False  True  True  False  True  0  n/a  Rem  -  -'
p485
aS'False  True  True  False  False  3  0.85  Con  Yemen  Mauritania;Sudan'
p486
aS'False  True  False  True  True  0  n/a  Rem  -  -'
p487
aS'False  True  False  True  False  0  n/a  Rem  -  -'
p488
aS'False  True  False  False  True  1  0.97  True  Morocco  -'
p489
aS'False  True  False  False  False  0  n/a  Rem  -  -'
p490
aS'False  False  True  True  True  0  n/a  Rem  -  -'
p491
aS'False  False  True  True  False  0  n/a  Rem  -  -'
p492
aS'False  False  True  False  True  0  n/a  Rem  -  -'
p493
aS'False  False  True  False  False  2  0.81  False  -  Iraq;Somalia'
p494
aS'False  False  False  True  True  0  n/a  Rem  -  -'
p495
aS'False  False  False  True  False  0  n/a  Rem  -  -'
p496
aS'False  False  False  False  True  0  n/a  Rem  -  -'
p497
aS'False  False  False  False  False  2  0.96  True  Syria;Egypt  -'
p498
atp499
a(S'Concov'
p500
(lp501
S'Term  Consist  Cov  Obs'
p502
aS'GINI+UNEMP+mobile*  0.83  0.70  Djibouti;Iraq;Mauritania;Qatar;Somalia;Algeria;Sudan;Jordan;Lebanon;Morocco;Oman;Syria;Libya;Yemen'
p503
aS'gini+urban*  0.84  0.70  Djibouti;Iraq;Mauritania;UAE;Somalia;Algeria;Sudan;Jordan;Kuwait;Morocco;Oman;Saudi;Syria;Yemen'
p504
aS'GDPPC+MOBILE+unemp*  0.80  0.72  Iraq;UAE;Qatar;Algeria;Jordan;Kuwait;Lebanon;Morocco;Oman;Saudi;Syria;Libya'
p505
aS'GDPPC+UNEMP*  0.81  0.65  Djibouti;Iraq;Mauritania;UAE;Qatar;Somalia;Algeria;Sudan;Kuwait;Lebanon;Oman;Saudi;Libya'
p506
aS'GDPPC+gini*  0.80  0.70  Djibouti;Iraq;UAE;Qatar;Somalia;Algeria;Kuwait;Lebanon;Oman;Saudi;Syria;Libya'
p507
aS'URBAN+MOBILE+gini*  0.83  0.66  Djibouti;Iraq;UAE;Qatar;Somalia;Algeria;Jordan;Kuwait;Lebanon;Oman;Saudi;Syria;Libya'
p508
aS'GINI+URBAN*  0.81  0.69  Djibouti;Iraq;Mauritania;UAE;Qatar;Algeria;Sudan;Jordan;Kuwait;Lebanon;Morocco;Oman;Saudi;Libya'
p509
aS'UNEMP+gini*  0.81  0.67  Djibouti;Iraq;Mauritania;UAE;Somalia;Algeria;Sudan;Kuwait;Oman;Saudi;Syria;Libya'
p510
aS'unemp+mobile*  0.83  0.68  Djibouti;Iraq;Mauritania;UAE;Qatar;Somalia;Algeria;Sudan;Kuwait;Lebanon;Morocco;Saudi;Syria;Yemen'
p511
aS'gini+unemp*  0.81  0.70  Djibouti;Iraq;UAE;Qatar;Somalia;Algeria;Kuwait;Lebanon;Morocco;Oman;Saudi;Syria'
p512
aS'GDPPC+urban*  0.91  0.70  Djibouti;Iraq;Mauritania;UAE;Qatar;Somalia;Algeria;Sudan;Jordan;Kuwait;Lebanon;Morocco;Oman;Saudi;Syria;Libya;Yemen'
p513
aS'GINI+UNEMP+gdppc*  0.82  0.69  Djibouti;Iraq;Mauritania;Qatar;Somalia;Sudan;Jordan;Lebanon;Morocco;Oman;Syria;Libya'
p514
aS'gdppc+unemp*  0.84  0.67  Djibouti;Iraq;Mauritania;UAE;Qatar;Somalia;Algeria;Sudan;Kuwait;Lebanon;Morocco;Saudi;Syria'
p515
aS'MOBILE+urban*  0.90  0.71  Djibouti;Iraq;Mauritania;UAE;Qatar;Somalia;Algeria;Sudan;Jordan;Kuwait;Morocco;Oman;Saudi;Syria;Libya;Yemen'
p516
aS'GINI+MOBILE*  0.82  0.69  Djibouti;Iraq;Mauritania;UAE;Qatar;Algeria;Sudan;Jordan;Kuwait;Lebanon;Morocco;Oman;Saudi;Libya'
p517
aS'URBAN+MOBILE+unemp*  0.81  0.69  Djibouti;Iraq;UAE;Qatar;Algeria;Jordan;Kuwait;Lebanon;Morocco;Oman;Saudi;Syria;Libya'
p518
aS'GDPPC+mobile*  0.86  0.66  Djibouti;Iraq;Mauritania;UAE;Qatar;Somalia;Algeria;Sudan;Kuwait;Lebanon;Oman;Saudi;Syria;Libya;Yemen'
p519
aS'UNEMP+URBAN+MOBILE*  0.83  0.63  Djibouti;Iraq;Mauritania;UAE;Qatar;Somalia;Algeria;Sudan;Jordan;Kuwait;Lebanon;Oman;Saudi;Libya'
p520
aS'GINI+unemp*  0.82  0.71  Djibouti;Iraq;Mauritania;UAE;Qatar;Algeria;Sudan;Jordan;Kuwait;Lebanon;Morocco;Saudi;Syria'
p521
aS'gini+mobile*  0.83  0.67  Djibouti;Iraq;Mauritania;UAE;Somalia;Algeria;Sudan;Kuwait;Lebanon;Oman;Saudi;Syria;Yemen'
p522
aS'MOBILE+gdppc*  0.87  0.67  Djibouti;Iraq;Mauritania;UAE;Qatar;Somalia;Algeria;Sudan;Jordan;Kuwait;Morocco;Oman;Saudi;Syria;Libya'
p523
aS'gdppc+gini*  0.83  0.68  Djibouti;Iraq;Mauritania;UAE;Somalia;Algeria;Sudan;Kuwait;Morocco;Oman;Saudi;Syria'
p524
aS'URBAN+gdppc*  0.86  0.66  Djibouti;Iraq;Mauritania;UAE;Qatar;Somalia;Algeria;Sudan;Kuwait;Lebanon;Morocco;Oman;Saudi;Syria;Libya'
p525
aS'GINI+urban*  0.81  0.72  Djibouti;Iraq;Mauritania;Qatar;Somalia;Algeria;Sudan;Jordan;Lebanon;Morocco;Syria;Yemen'
p526
aS'URBAN+mobile*  0.85  0.67  Djibouti;Iraq;Mauritania;UAE;Qatar;Somalia;Algeria;Sudan;Kuwait;Lebanon;Oman;Saudi;Syria;Libya;Yemen'
p527
aS'unemp+urban*  0.86  0.71  Djibouti;Iraq;Mauritania;UAE;Qatar;Somalia;Algeria;Sudan;Jordan;Kuwait;Lebanon;Morocco;Saudi;Syria;Yemen'
p528
aS'UNEMP+urban+mobile  0.82  0.71  Djibouti;Iraq;Mauritania;Somalia;Algeria;Sudan;Jordan;Lebanon;Morocco;Oman;Syria;Libya;Yemen'
p529
aS'Solution  0.41  0.92  NA'
p530
atp531
a(g464
(lp532
S'gdppc  gini  unemp  urban  mobile  N  Consist  Outcome  ObsConsist  ObsInconsist'
p533
aS'True  True  True  True  True  0  n/a  Rem  -  -'
p534
aS'True  True  True  True  False  0  n/a  Rem  -  -'
p535
aS'True  True  True  False  True  0  n/a  Rem  -  -'
p536
aS'True  True  True  False  False  0  n/a  Rem  -  -'
p537
aS'True  True  False  True  True  1  0.84  True  -  Qatar'
p538
aS'True  True  False  True  False  1  0.90  True  Lebanon  -'
p539
aS'True  True  False  False  True  1  0.97  True  Jordan  -'
p540
aS'True  True  False  False  False  0  n/a  Rem  -  -'
p541
aS'True  False  True  True  True  3  0.84  Con  Oman;Libya  Bahrain'
p542
aS'True  False  True  True  False  0  n/a  Rem  -  -'
p543
aS'True  False  True  False  True  0  n/a  Rem  -  -'
p544
aS'True  False  True  False  False  0  n/a  Rem  -  -'
p545
aS'True  False  False  True  True  3  0.77  Con  Saudi  UAE;Kuwait'
p546
aS'True  False  False  True  False  0  n/a  Rem  -  -'
p547
aS'True  False  False  False  True  0  n/a  Rem  -  -'
p548
aS'True  False  False  False  False  1  0.96  True  Algeria  -'
p549
aS'False  True  True  True  True  1  0.95  True  Tunisia  -'
p550
aS'False  True  True  True  False  1  0.83  True  -  Djibouti'
p551
aS'False  True  True  False  True  0  n/a  Rem  -  -'
p552
aS'False  True  True  False  False  3  0.85  Con  Yemen  Mauritania;Sudan'
p553
aS'False  True  False  True  True  0  n/a  Rem  -  -'
p554
aS'False  True  False  True  False  0  n/a  Rem  -  -'
p555
aS'False  True  False  False  True  1  0.97  True  Morocco  -'
p556
aS'False  True  False  False  False  0  n/a  Rem  -  -'
p557
aS'False  False  True  True  True  0  n/a  Rem  -  -'
p558
aS'False  False  True  True  False  0  n/a  Rem  -  -'
p559
aS'False  False  True  False  True  0  n/a  Rem  -  -'
p560
aS'False  False  True  False  False  2  0.81  True  -  Iraq;Somalia'
p561
aS'False  False  False  True  True  0  n/a  Rem  -  -'
p562
aS'False  False  False  True  False  0  n/a  Rem  -  -'
p563
aS'False  False  False  False  True  0  n/a  Rem  -  -'
p564
aS'False  False  False  False  False  2  0.96  True  Syria;Egypt  -'
p565
atp566
a(g441
g415
g5
(lp567
S'gdppc'
p568
aS'gini'
p569
aS'unemp'
p570
aS'urban'
p571
aS'youth'
p572
aS'mobile'
p573
aS'internet'
p574
aS'fuel'
p575
aS'pol'
p576
atp577
a(g441
g424
g5
(lp578
S'gdppc'
p579
aS'gini'
p580
aS'unemp'
p581
aS'urban'
p582
aS'youth'
p583
aS'mobile'
p584
aS'internet'
p585
aS'fuel'
p586
aS'pol'
p587
atp588
a(g464
(lp589
S'gdppc  gini  unemp  urban  youth  mobile  internet  fuel  pol  N  Consist  Outcome  ObsConsist  ObsInconsist'
p590
aS'True  True  True  True  True  True  True  True  True  0  n/a  Rem  -  -'
p591
aS'True  True  True  True  True  True  True  True  False  0  n/a  Rem  -  -'
p592
aS'True  True  True  True  True  True  True  False  True  0  n/a  Rem  -  -'
p593
aS'True  True  True  True  True  True  True  False  False  0  n/a  Rem  -  -'
p594
aS'True  True  True  True  True  True  False  True  True  0  n/a  Rem  -  -'
p595
aS'True  True  True  True  True  True  False  True  False  0  n/a  Rem  -  -'
p596
aS'True  True  True  True  True  True  False  False  True  0  n/a  Rem  -  -'
p597
aS'True  True  True  True  True  True  False  False  False  0  n/a  Rem  -  -'
p598
aS'True  True  True  True  True  False  True  True  True  0  n/a  Rem  -  -'
p599
aS'True  True  True  True  True  False  True  True  False  0  n/a  Rem  -  -'
p600
aS'True  True  True  True  True  False  True  False  True  0  n/a  Rem  -  -'
p601
aS'True  True  True  True  True  False  True  False  False  0  n/a  Rem  -  -'
p602
aS'True  True  True  True  True  False  False  True  True  0  n/a  Rem  -  -'
p603
aS'True  True  True  True  True  False  False  True  False  0  n/a  Rem  -  -'
p604
aS'True  True  True  True  True  False  False  False  True  0  n/a  Rem  -  -'
p605
aS'True  True  True  True  True  False  False  False  False  0  n/a  Rem  -  -'
p606
aS'True  True  True  True  False  True  True  True  True  0  n/a  Rem  -  -'
p607
aS'True  True  True  True  False  True  True  True  False  0  n/a  Rem  -  -'
p608
aS'True  True  True  True  False  True  True  False  True  0  n/a  Rem  -  -'
p609
aS'True  True  True  True  False  True  True  False  False  0  n/a  Rem  -  -'
p610
aS'True  True  True  True  False  True  False  True  True  0  n/a  Rem  -  -'
p611
aS'True  True  True  True  False  True  False  True  False  0  n/a  Rem  -  -'
p612
aS'True  True  True  True  False  True  False  False  True  0  n/a  Rem  -  -'
p613
aS'True  True  True  True  False  True  False  False  False  0  n/a  Rem  -  -'
p614
aS'True  True  True  True  False  False  True  True  True  0  n/a  Rem  -  -'
p615
aS'True  True  True  True  False  False  True  True  False  0  n/a  Rem  -  -'
p616
aS'True  True  True  True  False  False  True  False  True  0  n/a  Rem  -  -'
p617
aS'True  True  True  True  False  False  True  False  False  0  n/a  Rem  -  -'
p618
aS'True  True  True  True  False  False  False  True  True  0  n/a  Rem  -  -'
p619
aS'True  True  True  True  False  False  False  True  False  0  n/a  Rem  -  -'
p620
aS'True  True  True  True  False  False  False  False  True  0  n/a  Rem  -  -'
p621
aS'True  True  True  True  False  False  False  False  False  0  n/a  Rem  -  -'
p622
aS'True  True  True  False  True  True  True  True  True  0  n/a  Rem  -  -'
p623
aS'True  True  True  False  True  True  True  True  False  0  n/a  Rem  -  -'
p624
aS'True  True  True  False  True  True  True  False  True  0  n/a  Rem  -  -'
p625
aS'True  True  True  False  True  True  True  False  False  0  n/a  Rem  -  -'
p626
aS'True  True  True  False  True  True  False  True  True  0  n/a  Rem  -  -'
p627
aS'True  True  True  False  True  True  False  True  False  0  n/a  Rem  -  -'
p628
aS'True  True  True  False  True  True  False  False  True  0  n/a  Rem  -  -'
p629
aS'True  True  True  False  True  True  False  False  False  0  n/a  Rem  -  -'
p630
aS'True  True  True  False  True  False  True  True  True  0  n/a  Rem  -  -'
p631
aS'True  True  True  False  True  False  True  True  False  0  n/a  Rem  -  -'
p632
aS'True  True  True  False  True  False  True  False  True  0  n/a  Rem  -  -'
p633
aS'True  True  True  False  True  False  True  False  False  0  n/a  Rem  -  -'
p634
aS'True  True  True  False  True  False  False  True  True  0  n/a  Rem  -  -'
p635
aS'True  True  True  False  True  False  False  True  False  0  n/a  Rem  -  -'
p636
aS'True  True  True  False  True  False  False  False  True  0  n/a  Rem  -  -'
p637
aS'True  True  True  False  True  False  False  False  False  0  n/a  Rem  -  -'
p638
aS'True  True  True  False  False  True  True  True  True  0  n/a  Rem  -  -'
p639
aS'True  True  True  False  False  True  True  True  False  0  n/a  Rem  -  -'
p640
aS'True  True  True  False  False  True  True  False  True  0  n/a  Rem  -  -'
p641
aS'True  True  True  False  False  True  True  False  False  0  n/a  Rem  -  -'
p642
aS'True  True  True  False  False  True  False  True  True  0  n/a  Rem  -  -'
p643
aS'True  True  True  False  False  True  False  True  False  0  n/a  Rem  -  -'
p644
aS'True  True  True  False  False  True  False  False  True  0  n/a  Rem  -  -'
p645
aS'True  True  True  False  False  True  False  False  False  0  n/a  Rem  -  -'
p646
aS'True  True  True  False  False  False  True  True  True  0  n/a  Rem  -  -'
p647
aS'True  True  True  False  False  False  True  True  False  0  n/a  Rem  -  -'
p648
aS'True  True  True  False  False  False  True  False  True  0  n/a  Rem  -  -'
p649
aS'True  True  True  False  False  False  True  False  False  0  n/a  Rem  -  -'
p650
aS'True  True  True  False  False  False  False  True  True  0  n/a  Rem  -  -'
p651
aS'True  True  True  False  False  False  False  True  False  0  n/a  Rem  -  -'
p652
aS'True  True  True  False  False  False  False  False  True  0  n/a  Rem  -  -'
p653
aS'True  True  True  False  False  False  False  False  False  0  n/a  Rem  -  -'
p654
aS'True  True  False  True  True  True  True  True  True  0  n/a  Rem  -  -'
p655
aS'True  True  False  True  True  True  True  True  False  0  n/a  Rem  -  -'
p656
aS'True  True  False  True  True  True  True  False  True  0  n/a  Rem  -  -'
p657
aS'True  True  False  True  True  True  True  False  False  0  n/a  Rem  -  -'
p658
aS'True  True  False  True  True  True  False  True  True  0  n/a  Rem  -  -'
p659
aS'True  True  False  True  True  True  False  True  False  0  n/a  Rem  -  -'
p660
aS'True  True  False  True  True  True  False  False  True  0  n/a  Rem  -  -'
p661
aS'True  True  False  True  True  True  False  False  False  0  n/a  Rem  -  -'
p662
aS'True  True  False  True  True  False  True  True  True  0  n/a  Rem  -  -'
p663
aS'True  True  False  True  True  False  True  True  False  0  n/a  Rem  -  -'
p664
aS'True  True  False  True  True  False  True  False  True  0  n/a  Rem  -  -'
p665
aS'True  True  False  True  True  False  True  False  False  0  n/a  Rem  -  -'
p666
aS'True  True  False  True  True  False  False  True  True  0  n/a  Rem  -  -'
p667
aS'True  True  False  True  True  False  False  True  False  0  n/a  Rem  -  -'
p668
aS'True  True  False  True  True  False  False  False  True  0  n/a  Rem  -  -'
p669
aS'True  True  False  True  True  False  False  False  False  0  n/a  Rem  -  -'
p670
aS'True  True  False  True  False  True  True  True  True  0  n/a  Rem  -  -'
p671
aS'True  True  False  True  False  True  True  True  False  1  0.82  True  -  Qatar'
p672
aS'True  True  False  True  False  True  True  False  True  0  n/a  Rem  -  -'
p673
aS'True  True  False  True  False  True  True  False  False  0  n/a  Rem  -  -'
p674
aS'True  True  False  True  False  True  False  True  True  0  n/a  Rem  -  -'
p675
aS'True  True  False  True  False  True  False  True  False  0  n/a  Rem  -  -'
p676
aS'True  True  False  True  False  True  False  False  True  0  n/a  Rem  -  -'
p677
aS'True  True  False  True  False  True  False  False  False  0  n/a  Rem  -  -'
p678
aS'True  True  False  True  False  False  True  True  True  0  n/a  Rem  -  -'
p679
aS'True  True  False  True  False  False  True  True  False  0  n/a  Rem  -  -'
p680
aS'True  True  False  True  False  False  True  False  True  1  0.96  True  Lebanon  -'
p681
aS'True  True  False  True  False  False  True  False  False  0  n/a  Rem  -  -'
p682
aS'True  True  False  True  False  False  False  True  True  0  n/a  Rem  -  -'
p683
aS'True  True  False  True  False  False  False  True  False  0  n/a  Rem  -  -'
p684
aS'True  True  False  True  False  False  False  False  True  0  n/a  Rem  -  -'
p685
aS'True  True  False  True  False  False  False  False  False  0  n/a  Rem  -  -'
p686
aS'True  True  False  False  True  True  True  True  True  0  n/a  Rem  -  -'
p687
aS'True  True  False  False  True  True  True  True  False  0  n/a  Rem  -  -'
p688
aS'True  True  False  False  True  True  True  False  True  0  n/a  Rem  -  -'
p689
aS'True  True  False  False  True  True  True  False  False  0  n/a  Rem  -  -'
p690
aS'True  True  False  False  True  True  False  True  True  0  n/a  Rem  -  -'
p691
aS'True  True  False  False  True  True  False  True  False  0  n/a  Rem  -  -'
p692
aS'True  True  False  False  True  True  False  False  True  1  0.95  True  Jordan  -'
p693
aS'True  True  False  False  True  True  False  False  False  0  n/a  Rem  -  -'
p694
aS'True  True  False  False  True  False  True  True  True  0  n/a  Rem  -  -'
p695
aS'True  True  False  False  True  False  True  True  False  0  n/a  Rem  -  -'
p696
aS'True  True  False  False  True  False  True  False  True  0  n/a  Rem  -  -'
p697
aS'True  True  False  False  True  False  True  False  False  0  n/a  Rem  -  -'
p698
aS'True  True  False  False  True  False  False  True  True  0  n/a  Rem  -  -'
p699
aS'True  True  False  False  True  False  False  True  False  0  n/a  Rem  -  -'
p700
aS'True  True  False  False  True  False  False  False  True  0  n/a  Rem  -  -'
p701
aS'True  True  False  False  True  False  False  False  False  0  n/a  Rem  -  -'
p702
aS'True  True  False  False  False  True  True  True  True  0  n/a  Rem  -  -'
p703
aS'True  True  False  False  False  True  True  True  False  0  n/a  Rem  -  -'
p704
aS'True  True  False  False  False  True  True  False  True  0  n/a  Rem  -  -'
p705
aS'True  True  False  False  False  True  True  False  False  0  n/a  Rem  -  -'
p706
aS'True  True  False  False  False  True  False  True  True  0  n/a  Rem  -  -'
p707
aS'True  True  False  False  False  True  False  True  False  0  n/a  Rem  -  -'
p708
aS'True  True  False  False  False  True  False  False  True  0  n/a  Rem  -  -'
p709
aS'True  True  False  False  False  True  False  False  False  0  n/a  Rem  -  -'
p710
aS'True  True  False  False  False  False  True  True  True  0  n/a  Rem  -  -'
p711
aS'True  True  False  False  False  False  True  True  False  0  n/a  Rem  -  -'
p712
aS'True  True  False  False  False  False  True  False  True  0  n/a  Rem  -  -'
p713
aS'True  True  False  False  False  False  True  False  False  0  n/a  Rem  -  -'
p714
aS'True  True  False  False  False  False  False  True  True  0  n/a  Rem  -  -'
p715
aS'True  True  False  False  False  False  False  True  False  0  n/a  Rem  -  -'
p716
aS'True  True  False  False  False  False  False  False  True  0  n/a  Rem  -  -'
p717
aS'True  True  False  False  False  False  False  False  False  0  n/a  Rem  -  -'
p718
aS'True  False  True  True  True  True  True  True  True  0  n/a  Rem  -  -'
p719
aS'True  False  True  True  True  True  True  True  False  0  n/a  Rem  -  -'
p720
aS'True  False  True  True  True  True  True  False  True  0  n/a  Rem  -  -'
p721
aS'True  False  True  True  True  True  True  False  False  0  n/a  Rem  -  -'
p722
aS'True  False  True  True  True  True  False  True  True  0  n/a  Rem  -  -'
p723
aS'True  False  True  True  True  True  False  True  False  0  n/a  Rem  -  -'
p724
aS'True  False  True  True  True  True  False  False  True  0  n/a  Rem  -  -'
p725
aS'True  False  True  True  True  True  False  False  False  0  n/a  Rem  -  -'
p726
aS'True  False  True  True  True  False  True  True  True  0  n/a  Rem  -  -'
p727
aS'True  False  True  True  True  False  True  True  False  0  n/a  Rem  -  -'
p728
aS'True  False  True  True  True  False  True  False  True  0  n/a  Rem  -  -'
p729
aS'True  False  True  True  True  False  True  False  False  0  n/a  Rem  -  -'
p730
aS'True  False  True  True  True  False  False  True  True  0  n/a  Rem  -  -'
p731
aS'True  False  True  True  True  False  False  True  False  0  n/a  Rem  -  -'
p732
aS'True  False  True  True  True  False  False  False  True  0  n/a  Rem  -  -'
p733
aS'True  False  True  True  True  False  False  False  False  0  n/a  Rem  -  -'
p734
aS'True  False  True  True  False  True  True  True  True  0  n/a  Rem  -  -'
p735
aS'True  False  True  True  False  True  True  True  False  2  0.79  Con  Oman  Bahrain'
p736
aS'True  False  True  True  False  True  True  False  True  0  n/a  Rem  -  -'
p737
aS'True  False  True  True  False  True  True  False  False  0  n/a  Rem  -  -'
p738
aS'True  False  True  True  False  True  False  True  True  0  n/a  Rem  -  -'
p739
aS'True  False  True  True  False  True  False  True  False  1  0.95  True  Libya  -'
p740
aS'True  False  True  True  False  True  False  False  True  0  n/a  Rem  -  -'
p741
aS'True  False  True  True  False  True  False  False  False  0  n/a  Rem  -  -'
p742
aS'True  False  True  True  False  False  True  True  True  0  n/a  Rem  -  -'
p743
aS'True  False  True  True  False  False  True  True  False  0  n/a  Rem  -  -'
p744
aS'True  False  True  True  False  False  True  False  True  0  n/a  Rem  -  -'
p745
aS'True  False  True  True  False  False  True  False  False  0  n/a  Rem  -  -'
p746
aS'True  False  True  True  False  False  False  True  True  0  n/a  Rem  -  -'
p747
aS'True  False  True  True  False  False  False  True  False  0  n/a  Rem  -  -'
p748
aS'True  False  True  True  False  False  False  False  True  0  n/a  Rem  -  -'
p749
aS'True  False  True  True  False  False  False  False  False  0  n/a  Rem  -  -'
p750
aS'True  False  True  False  True  True  True  True  True  0  n/a  Rem  -  -'
p751
aS'True  False  True  False  True  True  True  True  False  0  n/a  Rem  -  -'
p752
aS'True  False  True  False  True  True  True  False  True  0  n/a  Rem  -  -'
p753
aS'True  False  True  False  True  True  True  False  False  0  n/a  Rem  -  -'
p754
aS'True  False  True  False  True  True  False  True  True  0  n/a  Rem  -  -'
p755
aS'True  False  True  False  True  True  False  True  False  0  n/a  Rem  -  -'
p756
aS'True  False  True  False  True  True  False  False  True  0  n/a  Rem  -  -'
p757
aS'True  False  True  False  True  True  False  False  False  0  n/a  Rem  -  -'
p758
aS'True  False  True  False  True  False  True  True  True  0  n/a  Rem  -  -'
p759
aS'True  False  True  False  True  False  True  True  False  0  n/a  Rem  -  -'
p760
aS'True  False  True  False  True  False  True  False  True  0  n/a  Rem  -  -'
p761
aS'True  False  True  False  True  False  True  False  False  0  n/a  Rem  -  -'
p762
aS'True  False  True  False  True  False  False  True  True  0  n/a  Rem  -  -'
p763
aS'True  False  True  False  True  False  False  True  False  0  n/a  Rem  -  -'
p764
aS'True  False  True  False  True  False  False  False  True  0  n/a  Rem  -  -'
p765
aS'True  False  True  False  True  False  False  False  False  0  n/a  Rem  -  -'
p766
aS'True  False  True  False  False  True  True  True  True  0  n/a  Rem  -  -'
p767
aS'True  False  True  False  False  True  True  True  False  0  n/a  Rem  -  -'
p768
aS'True  False  True  False  False  True  True  False  True  0  n/a  Rem  -  -'
p769
aS'True  False  True  False  False  True  True  False  False  0  n/a  Rem  -  -'
p770
aS'True  False  True  False  False  True  False  True  True  0  n/a  Rem  -  -'
p771
aS'True  False  True  False  False  True  False  True  False  0  n/a  Rem  -  -'
p772
aS'True  False  True  False  False  True  False  False  True  0  n/a  Rem  -  -'
p773
aS'True  False  True  False  False  True  False  False  False  0  n/a  Rem  -  -'
p774
aS'True  False  True  False  False  False  True  True  True  0  n/a  Rem  -  -'
p775
aS'True  False  True  False  False  False  True  True  False  0  n/a  Rem  -  -'
p776
aS'True  False  True  False  False  False  True  False  True  0  n/a  Rem  -  -'
p777
aS'True  False  True  False  False  False  True  False  False  0  n/a  Rem  -  -'
p778
aS'True  False  True  False  False  False  False  True  True  0  n/a  Rem  -  -'
p779
aS'True  False  True  False  False  False  False  True  False  0  n/a  Rem  -  -'
p780
aS'True  False  True  False  False  False  False  False  True  0  n/a  Rem  -  -'
p781
aS'True  False  True  False  False  False  False  False  False  0  n/a  Rem  -  -'
p782
aS'True  False  False  True  True  True  True  True  True  0  n/a  Rem  -  -'
p783
aS'True  False  False  True  True  True  True  True  False  0  n/a  Rem  -  -'
p784
aS'True  False  False  True  True  True  True  False  True  0  n/a  Rem  -  -'
p785
aS'True  False  False  True  True  True  True  False  False  0  n/a  Rem  -  -'
p786
aS'True  False  False  True  True  True  False  True  True  0  n/a  Rem  -  -'
p787
aS'True  False  False  True  True  True  False  True  False  1  0.95  True  Saudi  -'
p788
aS'True  False  False  True  True  True  False  False  True  0  n/a  Rem  -  -'
p789
aS'True  False  False  True  True  True  False  False  False  0  n/a  Rem  -  -'
p790
aS'True  False  False  True  True  False  True  True  True  0  n/a  Rem  -  -'
p791
aS'True  False  False  True  True  False  True  True  False  0  n/a  Rem  -  -'
p792
aS'True  False  False  True  True  False  True  False  True  0  n/a  Rem  -  -'
p793
aS'True  False  False  True  True  False  True  False  False  0  n/a  Rem  -  -'
p794
aS'True  False  False  True  True  False  False  True  True  0  n/a  Rem  -  -'
p795
aS'True  False  False  True  True  False  False  True  False  0  n/a  Rem  -  -'
p796
aS'True  False  False  True  True  False  False  False  True  0  n/a  Rem  -  -'
p797
aS'True  False  False  True  True  False  False  False  False  0  n/a  Rem  -  -'
p798
aS'True  False  False  True  False  True  True  True  True  0  n/a  Rem  -  -'
p799
aS'True  False  False  True  False  True  True  True  False  2  0.84  Con  Kuwait  UAE'
p800
aS'True  False  False  True  False  True  True  False  True  0  n/a  Rem  -  -'
p801
aS'True  False  False  True  False  True  True  False  False  0  n/a  Rem  -  -'
p802
aS'True  False  False  True  False  True  False  True  True  0  n/a  Rem  -  -'
p803
aS'True  False  False  True  False  True  False  True  False  0  n/a  Rem  -  -'
p804
aS'True  False  False  True  False  True  False  False  True  0  n/a  Rem  -  -'
p805
aS'True  False  False  True  False  True  False  False  False  0  n/a  Rem  -  -'
p806
aS'True  False  False  True  False  False  True  True  True  0  n/a  Rem  -  -'
p807
aS'True  False  False  True  False  False  True  True  False  0  n/a  Rem  -  -'
p808
aS'True  False  False  True  False  False  True  False  True  0  n/a  Rem  -  -'
p809
aS'True  False  False  True  False  False  True  False  False  0  n/a  Rem  -  -'
p810
aS'True  False  False  True  False  False  False  True  True  0  n/a  Rem  -  -'
p811
aS'True  False  False  True  False  False  False  True  False  0  n/a  Rem  -  -'
p812
aS'True  False  False  True  False  False  False  False  True  0  n/a  Rem  -  -'
p813
aS'True  False  False  True  False  False  False  False  False  0  n/a  Rem  -  -'
p814
aS'True  False  False  False  True  True  True  True  True  0  n/a  Rem  -  -'
p815
aS'True  False  False  False  True  True  True  True  False  0  n/a  Rem  -  -'
p816
aS'True  False  False  False  True  True  True  False  True  0  n/a  Rem  -  -'
p817
aS'True  False  False  False  True  True  True  False  False  0  n/a  Rem  -  -'
p818
aS'True  False  False  False  True  True  False  True  True  0  n/a  Rem  -  -'
p819
aS'True  False  False  False  True  True  False  True  False  0  n/a  Rem  -  -'
p820
aS'True  False  False  False  True  True  False  False  True  0  n/a  Rem  -  -'
p821
aS'True  False  False  False  True  True  False  False  False  0  n/a  Rem  -  -'
p822
aS'True  False  False  False  True  False  True  True  True  0  n/a  Rem  -  -'
p823
aS'True  False  False  False  True  False  True  True  False  0  n/a  Rem  -  -'
p824
aS'True  False  False  False  True  False  True  False  True  0  n/a  Rem  -  -'
p825
aS'True  False  False  False  True  False  True  False  False  0  n/a  Rem  -  -'
p826
aS'True  False  False  False  True  False  False  True  True  0  n/a  Rem  -  -'
p827
aS'True  False  False  False  True  False  False  True  False  0  n/a  Rem  -  -'
p828
aS'True  False  False  False  True  False  False  False  True  0  n/a  Rem  -  -'
p829
aS'True  False  False  False  True  False  False  False  False  0  n/a  Rem  -  -'
p830
aS'True  False  False  False  False  True  True  True  True  0  n/a  Rem  -  -'
p831
aS'True  False  False  False  False  True  True  True  False  0  n/a  Rem  -  -'
p832
aS'True  False  False  False  False  True  True  False  True  0  n/a  Rem  -  -'
p833
aS'True  False  False  False  False  True  True  False  False  0  n/a  Rem  -  -'
p834
aS'True  False  False  False  False  True  False  True  True  0  n/a  Rem  -  -'
p835
aS'True  False  False  False  False  True  False  True  False  0  n/a  Rem  -  -'
p836
aS'True  False  False  False  False  True  False  False  True  0  n/a  Rem  -  -'
p837
aS'True  False  False  False  False  True  False  False  False  0  n/a  Rem  -  -'
p838
aS'True  False  False  False  False  False  True  True  True  0  n/a  Rem  -  -'
p839
aS'True  False  False  False  False  False  True  True  False  0  n/a  Rem  -  -'
p840
aS'True  False  False  False  False  False  True  False  True  0  n/a  Rem  -  -'
p841
aS'True  False  False  False  False  False  True  False  False  0  n/a  Rem  -  -'
p842
aS'True  False  False  False  False  False  False  True  True  1  0.95  True  Algeria  -'
p843
aS'True  False  False  False  False  False  False  True  False  0  n/a  Rem  -  -'
p844
aS'True  False  False  False  False  False  False  False  True  0  n/a  Rem  -  -'
p845
aS'True  False  False  False  False  False  False  False  False  0  n/a  Rem  -  -'
p846
aS'False  True  True  True  True  True  True  True  True  0  n/a  Rem  -  -'
p847
aS'False  True  True  True  True  True  True  True  False  0  n/a  Rem  -  -'
p848
aS'False  True  True  True  True  True  True  False  True  0  n/a  Rem  -  -'
p849
aS'False  True  True  True  True  True  True  False  False  0  n/a  Rem  -  -'
p850
aS'False  True  True  True  True  True  False  True  True  0  n/a  Rem  -  -'
p851
aS'False  True  True  True  True  True  False  True  False  0  n/a  Rem  -  -'
p852
aS'False  True  True  True  True  True  False  False  True  0  n/a  Rem  -  -'
p853
aS'False  True  True  True  True  True  False  False  False  0  n/a  Rem  -  -'
p854
aS'False  True  True  True  True  False  True  True  True  0  n/a  Rem  -  -'
p855
aS'False  True  True  True  True  False  True  True  False  0  n/a  Rem  -  -'
p856
aS'False  True  True  True  True  False  True  False  True  0  n/a  Rem  -  -'
p857
aS'False  True  True  True  True  False  True  False  False  0  n/a  Rem  -  -'
p858
aS'False  True  True  True  True  False  False  True  True  0  n/a  Rem  -  -'
p859
aS'False  True  True  True  True  False  False  True  False  0  n/a  Rem  -  -'
p860
aS'False  True  True  True  True  False  False  False  True  1  0.79  False  -  Djibouti'
p861
aS'False  True  True  True  True  False  False  False  False  0  n/a  Rem  -  -'
p862
aS'False  True  True  True  False  True  True  True  True  0  n/a  Rem  -  -'
p863
aS'False  True  True  True  False  True  True  True  False  0  n/a  Rem  -  -'
p864
aS'False  True  True  True  False  True  True  False  True  0  n/a  Rem  -  -'
p865
aS'False  True  True  True  False  True  True  False  False  0  n/a  Rem  -  -'
p866
aS'False  True  True  True  False  True  False  True  True  0  n/a  Rem  -  -'
p867
aS'False  True  True  True  False  True  False  True  False  0  n/a  Rem  -  -'
p868
aS'False  True  True  True  False  True  False  False  True  0  n/a  Rem  -  -'
p869
aS'False  True  True  True  False  True  False  False  False  0  n/a  Rem  -  -'
p870
aS'False  True  True  True  False  False  True  True  True  0  n/a  Rem  -  -'
p871
aS'False  True  True  True  False  False  True  True  False  0  n/a  Rem  -  -'
p872
aS'False  True  True  True  False  False  True  False  True  0  n/a  Rem  -  -'
p873
aS'False  True  True  True  False  False  True  False  False  0  n/a  Rem  -  -'
p874
aS'False  True  True  True  False  False  False  True  True  0  n/a  Rem  -  -'
p875
aS'False  True  True  True  False  False  False  True  False  0  n/a  Rem  -  -'
p876
aS'False  True  True  True  False  False  False  False  True  0  n/a  Rem  -  -'
p877
aS'False  True  True  True  False  False  False  False  False  0  n/a  Rem  -  -'
p878
aS'False  True  True  False  True  True  True  True  True  0  n/a  Rem  -  -'
p879
aS'False  True  True  False  True  True  True  True  False  0  n/a  Rem  -  -'
p880
aS'False  True  True  False  True  True  True  False  True  0  n/a  Rem  -  -'
p881
aS'False  True  True  False  True  True  True  False  False  0  n/a  Rem  -  -'
p882
aS'False  True  True  False  True  True  False  True  True  0  n/a  Rem  -  -'
p883
aS'False  True  True  False  True  True  False  True  False  0  n/a  Rem  -  -'
p884
aS'False  True  True  False  True  True  False  False  True  0  n/a  Rem  -  -'
p885
aS'False  True  True  False  True  True  False  False  False  0  n/a  Rem  -  -'
p886
aS'False  True  True  False  True  False  True  True  True  0  n/a  Rem  -  -'
p887
aS'False  True  True  False  True  False  True  True  False  0  n/a  Rem  -  -'
p888
aS'False  True  True  False  True  False  True  False  True  0  n/a  Rem  -  -'
p889
aS'False  True  True  False  True  False  True  False  False  0  n/a  Rem  -  -'
p890
aS'False  True  True  False  True  False  False  True  True  2  0.93  True  Sudan;Yemen  -'
p891
aS'False  True  True  False  True  False  False  True  False  0  n/a  Rem  -  -'
p892
aS'False  True  True  False  True  False  False  False  True  1  0.83  True  -  Mauritania'
p893
aS'False  True  True  False  True  False  False  False  False  0  n/a  Rem  -  -'
p894
aS'False  True  True  False  False  True  True  True  True  0  n/a  Rem  -  -'
p895
aS'False  True  True  False  False  True  True  True  False  0  n/a  Rem  -  -'
p896
aS'False  True  True  False  False  True  True  False  True  0  n/a  Rem  -  -'
p897
aS'False  True  True  False  False  True  True  False  False  0  n/a  Rem  -  -'
p898
aS'False  True  True  False  False  True  False  True  True  0  n/a  Rem  -  -'
p899
aS'False  True  True  False  False  True  False  True  False  0  n/a  Rem  -  -'
p900
aS'False  True  True  False  False  True  False  False  True  0  n/a  Rem  -  -'
p901
aS'False  True  True  False  False  True  False  False  False  0  n/a  Rem  -  -'
p902
aS'False  True  True  False  False  False  True  True  True  0  n/a  Rem  -  -'
p903
aS'False  True  True  False  False  False  True  True  False  0  n/a  Rem  -  -'
p904
aS'False  True  True  False  False  False  True  False  True  0  n/a  Rem  -  -'
p905
aS'False  True  True  False  False  False  True  False  False  0  n/a  Rem  -  -'
p906
aS'False  True  True  False  False  False  False  True  True  0  n/a  Rem  -  -'
p907
aS'False  True  True  False  False  False  False  True  False  0  n/a  Rem  -  -'
p908
aS'False  True  True  False  False  False  False  False  True  0  n/a  Rem  -  -'
p909
aS'False  True  True  False  False  False  False  False  False  0  n/a  Rem  -  -'
p910
aS'False  True  False  True  True  True  True  True  True  0  n/a  Rem  -  -'
p911
aS'False  True  False  True  True  True  True  True  False  0  n/a  Rem  -  -'
p912
aS'False  True  False  True  True  True  True  False  True  0  n/a  Rem  -  -'
p913
aS'False  True  False  True  True  True  True  False  False  0  n/a  Rem  -  -'
p914
aS'False  True  False  True  True  True  False  True  True  0  n/a  Rem  -  -'
p915
aS'False  True  False  True  True  True  False  True  False  0  n/a  Rem  -  -'
p916
aS'False  True  False  True  True  True  False  False  True  0  n/a  Rem  -  -'
p917
aS'False  True  False  True  True  True  False  False  False  0  n/a  Rem  -  -'
p918
aS'False  True  False  True  True  False  True  True  True  0  n/a  Rem  -  -'
p919
aS'False  True  False  True  True  False  True  True  False  0  n/a  Rem  -  -'
p920
aS'False  True  False  True  True  False  True  False  True  0  n/a  Rem  -  -'
p921
aS'False  True  False  True  True  False  True  False  False  0  n/a  Rem  -  -'
p922
aS'False  True  False  True  True  False  False  True  True  0  n/a  Rem  -  -'
p923
aS'False  True  False  True  True  False  False  True  False  0  n/a  Rem  -  -'
p924
aS'False  True  False  True  True  False  False  False  True  0  n/a  Rem  -  -'
p925
aS'False  True  False  True  True  False  False  False  False  0  n/a  Rem  -  -'
p926
aS'False  True  False  True  False  True  True  True  True  0  n/a  Rem  -  -'
p927
aS'False  True  False  True  False  True  True  True  False  0  n/a  Rem  -  -'
p928
aS'False  True  False  True  False  True  True  False  True  0  n/a  Rem  -  -'
p929
aS'False  True  False  True  False  True  True  False  False  0  n/a  Rem  -  -'
p930
aS'False  True  False  True  False  True  False  True  True  0  n/a  Rem  -  -'
p931
aS'False  True  False  True  False  True  False  True  False  0  n/a  Rem  -  -'
p932
aS'False  True  False  True  False  True  False  False  True  0  n/a  Rem  -  -'
p933
aS'False  True  False  True  False  True  False  False  False  0  n/a  Rem  -  -'
p934
aS'False  True  False  True  False  False  True  True  True  0  n/a  Rem  -  -'
p935
aS'False  True  False  True  False  False  True  True  False  0  n/a  Rem  -  -'
p936
aS'False  True  False  True  False  False  True  False  True  0  n/a  Rem  -  -'
p937
aS'False  True  False  True  False  False  True  False  False  0  n/a  Rem  -  -'
p938
aS'False  True  False  True  False  False  False  True  True  0  n/a  Rem  -  -'
p939
aS'False  True  False  True  False  False  False  True  False  0  n/a  Rem  -  -'
p940
aS'False  True  False  True  False  False  False  False  True  0  n/a  Rem  -  -'
p941
aS'False  True  False  True  False  False  False  False  False  0  n/a  Rem  -  -'
p942
aS'False  True  False  False  True  True  True  True  True  0  n/a  Rem  -  -'
p943
aS'False  True  False  False  True  True  True  True  False  0  n/a  Rem  -  -'
p944
aS'False  True  False  False  True  True  True  False  True  0  n/a  Rem  -  -'
p945
aS'False  True  False  False  True  True  True  False  False  0  n/a  Rem  -  -'
p946
aS'False  True  False  False  True  True  False  True  True  0  n/a  Rem  -  -'
p947
aS'False  True  False  False  True  True  False  True  False  0  n/a  Rem  -  -'
p948
aS'False  True  False  False  True  True  False  False  True  0  n/a  Rem  -  -'
p949
aS'False  True  False  False  True  True  False  False  False  0  n/a  Rem  -  -'
p950
aS'False  True  False  False  True  False  True  True  True  0  n/a  Rem  -  -'
p951
aS'False  True  False  False  True  False  True  True  False  0  n/a  Rem  -  -'
p952
aS'False  True  False  False  True  False  True  False  True  0  n/a  Rem  -  -'
p953
aS'False  True  False  False  True  False  True  False  False  0  n/a  Rem  -  -'
p954
aS'False  True  False  False  True  False  False  True  True  0  n/a  Rem  -  -'
p955
aS'False  True  False  False  True  False  False  True  False  0  n/a  Rem  -  -'
p956
aS'False  True  False  False  True  False  False  False  True  0  n/a  Rem  -  -'
p957
aS'False  True  False  False  True  False  False  False  False  0  n/a  Rem  -  -'
p958
aS'False  True  False  False  False  True  True  True  True  0  n/a  Rem  -  -'
p959
aS'False  True  False  False  False  True  True  True  False  0  n/a  Rem  -  -'
p960
aS'False  True  False  False  False  True  True  False  True  0  n/a  Rem  -  -'
p961
aS'False  True  False  False  False  True  True  False  False  1  0.96  True  Morocco  -'
p962
aS'False  True  False  False  False  True  False  True  True  0  n/a  Rem  -  -'
p963
aS'False  True  False  False  False  True  False  True  False  0  n/a  Rem  -  -'
p964
aS'False  True  False  False  False  True  False  False  True  0  n/a  Rem  -  -'
p965
aS'False  True  False  False  False  True  False  False  False  0  n/a  Rem  -  -'
p966
aS'False  True  False  False  False  False  True  True  True  0  n/a  Rem  -  -'
p967
aS'False  True  False  False  False  False  True  True  False  0  n/a  Rem  -  -'
p968
aS'False  True  False  False  False  False  True  False  True  0  n/a  Rem  -  -'
p969
aS'False  True  False  False  False  False  True  False  False  0  n/a  Rem  -  -'
p970
aS'False  True  False  False  False  False  False  True  True  0  n/a  Rem  -  -'
p971
aS'False  True  False  False  False  False  False  True  False  0  n/a  Rem  -  -'
p972
aS'False  True  False  False  False  False  False  False  True  0  n/a  Rem  -  -'
p973
aS'False  True  False  False  False  False  False  False  False  0  n/a  Rem  -  -'
p974
aS'False  False  True  True  True  True  True  True  True  0  n/a  Rem  -  -'
p975
aS'False  False  True  True  True  True  True  True  False  0  n/a  Rem  -  -'
p976
aS'False  False  True  True  True  True  True  False  True  0  n/a  Rem  -  -'
p977
aS'False  False  True  True  True  True  True  False  False  0  n/a  Rem  -  -'
p978
aS'False  False  True  True  True  True  False  True  True  0  n/a  Rem  -  -'
p979
aS'False  False  True  True  True  True  False  True  False  0  n/a  Rem  -  -'
p980
aS'False  False  True  True  True  True  False  False  True  0  n/a  Rem  -  -'
p981
aS'False  False  True  True  True  True  False  False  False  0  n/a  Rem  -  -'
p982
aS'False  False  True  True  True  False  True  True  True  0  n/a  Rem  -  -'
p983
aS'False  False  True  True  True  False  True  True  False  0  n/a  Rem  -  -'
p984
aS'False  False  True  True  True  False  True  False  True  0  n/a  Rem  -  -'
p985
aS'False  False  True  True  True  False  True  False  False  0  n/a  Rem  -  -'
p986
aS'False  False  True  True  True  False  False  True  True  0  n/a  Rem  -  -'
p987
aS'False  False  True  True  True  False  False  True  False  0  n/a  Rem  -  -'
p988
aS'False  False  True  True  True  False  False  False  True  0  n/a  Rem  -  -'
p989
aS'False  False  True  True  True  False  False  False  False  0  n/a  Rem  -  -'
p990
aS'False  False  True  True  False  True  True  True  True  0  n/a  Rem  -  -'
p991
aS'False  False  True  True  False  True  True  True  False  0  n/a  Rem  -  -'
p992
aS'False  False  True  True  False  True  True  False  True  0  n/a  Rem  -  -'
p993
aS'False  False  True  True  False  True  True  False  False  0  n/a  Rem  -  -'
p994
aS'False  False  True  True  False  True  False  True  True  0  n/a  Rem  -  -'
p995
aS'False  False  True  True  False  True  False  True  False  0  n/a  Rem  -  -'
p996
aS'False  False  True  True  False  True  False  False  True  0  n/a  Rem  -  -'
p997
aS'False  False  True  True  False  True  False  False  False  0  n/a  Rem  -  -'
p998
aS'False  False  True  True  False  False  True  True  True  0  n/a  Rem  -  -'
p999
aS'False  False  True  True  False  False  True  True  False  0  n/a  Rem  -  -'
p1000
aS'False  False  True  True  False  False  True  False  True  0  n/a  Rem  -  -'
p1001
aS'False  False  True  True  False  False  True  False  False  0  n/a  Rem  -  -'
p1002
aS'False  False  True  True  False  False  False  True  True  0  n/a  Rem  -  -'
p1003
aS'False  False  True  True  False  False  False  True  False  0  n/a  Rem  -  -'
p1004
aS'False  False  True  True  False  False  False  False  True  0  n/a  Rem  -  -'
p1005
aS'False  False  True  True  False  False  False  False  False  0  n/a  Rem  -  -'
p1006
aS'False  False  True  False  True  True  True  True  True  0  n/a  Rem  -  -'
p1007
aS'False  False  True  False  True  True  True  True  False  0  n/a  Rem  -  -'
p1008
aS'False  False  True  False  True  True  True  False  True  0  n/a  Rem  -  -'
p1009
aS'False  False  True  False  True  True  True  False  False  0  n/a  Rem  -  -'
p1010
aS'False  False  True  False  True  True  False  True  True  0  n/a  Rem  -  -'
p1011
aS'False  False  True  False  True  True  False  True  False  0  n/a  Rem  -  -'
p1012
aS'False  False  True  False  True  True  False  False  True  0  n/a  Rem  -  -'
p1013
aS'False  False  True  False  True  True  False  False  False  0  n/a  Rem  -  -'
p1014
aS'False  False  True  False  True  False  True  True  True  0  n/a  Rem  -  -'
p1015
aS'False  False  True  False  True  False  True  True  False  0  n/a  Rem  -  -'
p1016
aS'False  False  True  False  True  False  True  False  True  1  0.84  True  -  Iraq'
p1017
aS'False  False  True  False  True  False  True  False  False  0  n/a  Rem  -  -'
p1018
aS'False  False  True  False  True  False  False  True  True  0  n/a  Rem  -  -'
p1019
aS'False  False  True  False  True  False  False  True  False  0  n/a  Rem  -  -'
p1020
aS'False  False  True  False  True  False  False  False  True  0  n/a  Rem  -  -'
p1021
aS'False  False  True  False  True  False  False  False  False  0  n/a  Rem  -  -'
p1022
aS'False  False  True  False  False  True  True  True  True  0  n/a  Rem  -  -'
p1023
aS'False  False  True  False  False  True  True  True  False  0  n/a  Rem  -  -'
p1024
aS'False  False  True  False  False  True  True  False  True  0  n/a  Rem  -  -'
p1025
aS'False  False  True  False  False  True  True  False  False  0  n/a  Rem  -  -'
p1026
aS'False  False  True  False  False  True  False  True  True  0  n/a  Rem  -  -'
p1027
aS'False  False  True  False  False  True  False  True  False  0  n/a  Rem  -  -'
p1028
aS'False  False  True  False  False  True  False  False  True  0  n/a  Rem  -  -'
p1029
aS'False  False  True  False  False  True  False  False  False  0  n/a  Rem  -  -'
p1030
aS'False  False  True  False  False  False  True  True  True  0  n/a  Rem  -  -'
p1031
aS'False  False  True  False  False  False  True  True  False  0  n/a  Rem  -  -'
p1032
aS'False  False  True  False  False  False  True  False  True  0  n/a  Rem  -  -'
p1033
aS'False  False  True  False  False  False  True  False  False  0  n/a  Rem  -  -'
p1034
aS'False  False  True  False  False  False  False  True  True  0  n/a  Rem  -  -'
p1035
aS'False  False  True  False  False  False  False  True  False  0  n/a  Rem  -  -'
p1036
aS'False  False  True  False  False  False  False  False  True  0  n/a  Rem  -  -'
p1037
aS'False  False  True  False  False  False  False  False  False  0  n/a  Rem  -  -'
p1038
aS'False  False  False  True  True  True  True  True  True  0  n/a  Rem  -  -'
p1039
aS'False  False  False  True  True  True  True  True  False  0  n/a  Rem  -  -'
p1040
aS'False  False  False  True  True  True  True  False  True  0  n/a  Rem  -  -'
p1041
aS'False  False  False  True  True  True  True  False  False  0  n/a  Rem  -  -'
p1042
aS'False  False  False  True  True  True  False  True  True  0  n/a  Rem  -  -'
p1043
aS'False  False  False  True  True  True  False  True  False  0  n/a  Rem  -  -'
p1044
aS'False  False  False  True  True  True  False  False  True  0  n/a  Rem  -  -'
p1045
aS'False  False  False  True  True  True  False  False  False  0  n/a  Rem  -  -'
p1046
aS'False  False  False  True  True  False  True  True  True  0  n/a  Rem  -  -'
p1047
aS'False  False  False  True  True  False  True  True  False  0  n/a  Rem  -  -'
p1048
aS'False  False  False  True  True  False  True  False  True  0  n/a  Rem  -  -'
p1049
aS'False  False  False  True  True  False  True  False  False  0  n/a  Rem  -  -'
p1050
aS'False  False  False  True  True  False  False  True  True  0  n/a  Rem  -  -'
p1051
aS'False  False  False  True  True  False  False  True  False  0  n/a  Rem  -  -'
p1052
aS'False  False  False  True  True  False  False  False  True  0  n/a  Rem  -  -'
p1053
aS'False  False  False  True  True  False  False  False  False  0  n/a  Rem  -  -'
p1054
aS'False  False  False  True  False  True  True  True  True  0  n/a  Rem  -  -'
p1055
aS'False  False  False  True  False  True  True  True  False  0  n/a  Rem  -  -'
p1056
aS'False  False  False  True  False  True  True  False  True  0  n/a  Rem  -  -'
p1057
aS'False  False  False  True  False  True  True  False  False  0  n/a  Rem  -  -'
p1058
aS'False  False  False  True  False  True  False  True  True  0  n/a  Rem  -  -'
p1059
aS'False  False  False  True  False  True  False  True  False  0  n/a  Rem  -  -'
p1060
aS'False  False  False  True  False  True  False  False  True  0  n/a  Rem  -  -'
p1061
aS'False  False  False  True  False  True  False  False  False  0  n/a  Rem  -  -'
p1062
aS'False  False  False  True  False  False  True  True  True  0  n/a  Rem  -  -'
p1063
aS'False  False  False  True  False  False  True  True  False  0  n/a  Rem  -  -'
p1064
aS'False  False  False  True  False  False  True  False  True  0  n/a  Rem  -  -'
p1065
aS'False  False  False  True  False  False  True  False  False  0  n/a  Rem  -  -'
p1066
aS'False  False  False  True  False  False  False  True  True  0  n/a  Rem  -  -'
p1067
aS'False  False  False  True  False  False  False  True  False  0  n/a  Rem  -  -'
p1068
aS'False  False  False  True  False  False  False  False  True  0  n/a  Rem  -  -'
p1069
aS'False  False  False  True  False  False  False  False  False  0  n/a  Rem  -  -'
p1070
aS'False  False  False  False  True  True  True  True  True  0  n/a  Rem  -  -'
p1071
aS'False  False  False  False  True  True  True  True  False  0  n/a  Rem  -  -'
p1072
aS'False  False  False  False  True  True  True  False  True  0  n/a  Rem  -  -'
p1073
aS'False  False  False  False  True  True  True  False  False  0  n/a  Rem  -  -'
p1074
aS'False  False  False  False  True  True  False  True  True  0  n/a  Rem  -  -'
p1075
aS'False  False  False  False  True  True  False  True  False  0  n/a  Rem  -  -'
p1076
aS'False  False  False  False  True  True  False  False  True  0  n/a  Rem  -  -'
p1077
aS'False  False  False  False  True  True  False  False  False  0  n/a  Rem  -  -'
p1078
aS'False  False  False  False  True  False  True  True  True  0  n/a  Rem  -  -'
p1079
aS'False  False  False  False  True  False  True  True  False  0  n/a  Rem  -  -'
p1080
aS'False  False  False  False  True  False  True  False  True  0  n/a  Rem  -  -'
p1081
aS'False  False  False  False  True  False  True  False  False  0  n/a  Rem  -  -'
p1082
aS'False  False  False  False  True  False  False  True  True  0  n/a  Rem  -  -'
p1083
aS'False  False  False  False  True  False  False  True  False  0  n/a  Rem  -  -'
p1084
aS'False  False  False  False  True  False  False  False  True  1  0.95  True  Egypt  -'
p1085
aS'False  False  False  False  True  False  False  False  False  1  0.95  True  Syria  -'
p1086
aS'False  False  False  False  False  True  True  True  True  0  n/a  Rem  -  -'
p1087
aS'False  False  False  False  False  True  True  True  False  0  n/a  Rem  -  -'
p1088
aS'False  False  False  False  False  True  True  False  True  0  n/a  Rem  -  -'
p1089
aS'False  False  False  False  False  True  True  False  False  0  n/a  Rem  -  -'
p1090
aS'False  False  False  False  False  True  False  True  True  0  n/a  Rem  -  -'
p1091
aS'False  False  False  False  False  True  False  True  False  0  n/a  Rem  -  -'
p1092
aS'False  False  False  False  False  True  False  False  True  0  n/a  Rem  -  -'
p1093
aS'False  False  False  False  False  True  False  False  False  0  n/a  Rem  -  -'
p1094
aS'False  False  False  False  False  False  True  True  True  0  n/a  Rem  -  -'
p1095
aS'False  False  False  False  False  False  True  True  False  0  n/a  Rem  -  -'
p1096
aS'False  False  False  False  False  False  True  False  True  0  n/a  Rem  -  -'
p1097
aS'False  False  False  False  False  False  True  False  False  0  n/a  Rem  -  -'
p1098
aS'False  False  False  False  False  False  False  True  True  0  n/a  Rem  -  -'
p1099
aS'False  False  False  False  False  False  False  True  False  0  n/a  Rem  -  -'
p1100
aS'False  False  False  False  False  False  False  False  True  0  n/a  Rem  -  -'
p1101
aS'False  False  False  False  False  False  False  False  False  0  n/a  Rem  -  -'
p1102
atp1103
aa.